target datalayout = "e-m:e-p270:32:32-p271:32:32-p272:64:64-i64:64-i128:128-f80:128-n8:16:32:64-S128"
target triple = "x86_64-pc-linux-gnu"

%class.mpz = type { i32, i8, ptr }
%class.mpbq = type <{ %class.mpz, i32, [4 x i8] }>
%class.mpbq_manager = type { ptr, %class.mpz, %class.mpz, %class.mpbq, %class.mpz, %class.mpz, %class.mpz, %class.mpbq, %class.mpbq, %class.mpz, %class.mpz, %class.mpz }

; Function Attrs: mustprogress uwtable
define hidden void @_ZN12mpbq_manager5powerER4mpbqj(ptr noundef nonnull align 8 dereferenceable(208) %0, ptr noundef nonnull align 8 dereferenceable(20) %1, i32 noundef %2) #4 align 2 {
  %4 = alloca ptr, align 8
  %5 = alloca ptr, align 8
  %6 = alloca i32, align 4
  store ptr %0, ptr %4, align 8, !tbaa !20
  store ptr %1, ptr %5, align 8, !tbaa !3
  store i32 %2, ptr %6, align 4, !tbaa !12
  %7 = load ptr, ptr %4, align 8
  %8 = load i32, ptr %6, align 4, !tbaa !12
  %9 = load ptr, ptr %5, align 8, !tbaa !3
  %10 = getelementptr inbounds nuw %class.mpbq, ptr %9, i32 0, i32 1
  %11 = load i32, ptr %10, align 8, !tbaa !14
  %12 = mul i32 %11, %8
  store i32 %12, ptr %10, align 8, !tbaa !14
  %13 = getelementptr inbounds nuw %class.mpbq_manager, ptr %7, i32 0, i32 0
  %14 = load ptr, ptr %13, align 8, !tbaa !26
  %15 = load ptr, ptr %5, align 8, !tbaa !3
  %16 = getelementptr inbounds nuw %class.mpbq, ptr %15, i32 0, i32 0
  %17 = load i32, ptr %6, align 4, !tbaa !12
  %18 = load ptr, ptr %5, align 8, !tbaa !3
  %19 = getelementptr inbounds nuw %class.mpbq, ptr %18, i32 0, i32 0
  call void @_ZN11mpz_managerILb0EE5powerERK3mpzjRS1_(ptr noundef nonnull align 8 dereferenceable(600) %14, ptr noundef nonnull align 8 dereferenceable(16) %16, i32 noundef %17, ptr noundef nonnull align 8 dereferenceable(16) %19)
  ret void
}